target datalayout = "e-m:e-p270:32:32-p271:32:32-p272:64:64-i64:64-i128:128-f80:128-n8:16:32:64-S128"
target triple = "x86_64-pc-linux-gnu"

%struct._cms_iccprofile_struct = type { ptr, ptr, %struct.tm, i32, i32, i32, i32, i32, i32, i32, i32, i32, i32, i64, i32, %union.cmsProfileID, i32, [100 x i32], [100 x i32], [100 x i32], [100 x i32], [100 x i32], [100 x ptr], [100 x ptr], i32, ptr }
%struct.tm = type { i32, i32, i32, i32, i32, i32, i32, i32, i32, i64, ptr }
%union.cmsProfileID = type { [4 x i32] }

; Function Attrs: nounwind uwtable
define internal i32 @SearchOneTag(ptr noundef %0, i32 noundef %1) #0 {
  %3 = alloca i32, align 4
  %4 = alloca ptr, align 8
  %5 = alloca i32, align 4
  %6 = alloca i32, align 4
  store ptr %0, ptr %4, align 8
  store i32 %1, ptr %5, align 4
  store i32 0, ptr %6, align 4
  br label %7

7:                                                ; preds = %25, %2
  %8 = load i32, ptr %6, align 4
  %9 = load ptr, ptr %4, align 8
  %10 = getelementptr inbounds %struct._cms_iccprofile_struct, ptr %9, i32 0, i32 16
  %11 = load i32, ptr %10, align 4
  %12 = icmp slt i32 %8, %11
  br i1 %12, label %13, label %28

13:                                               ; preds = %7
  %14 = load i32, ptr %5, align 4
  %15 = load ptr, ptr %4, align 8
  %16 = getelementptr inbounds %struct._cms_iccprofile_struct, ptr %15, i32 0, i32 17
  %17 = load i32, ptr %6, align 4
  %18 = sext i32 %17 to i64
  %19 = getelementptr inbounds [100 x i32], ptr %16, i64 0, i64 %18
  %20 = load i32, ptr %19, align 4
  %21 = icmp eq i32 %14, %20
  br i1 %21, label %22, label %24

22:                                               ; preds = %13
  %23 = load i32, ptr %6, align 4
  store i32 %23, ptr %3, align 4
  br label %29

24:                                               ; preds = %13
  br label %25

25:                                               ; preds = %24
  %26 = load i32, ptr %6, align 4
  %27 = add nsw i32 %26, 1
  store i32 %27, ptr %6, align 4
  br label %7, !llvm.loop !9

28:                                               ; preds = %7
  store i32 -1, ptr %3, align 4
  br label %29

29:                                               ; preds = %28, %22
  %30 = load i32, ptr %3, align 4
  ret i32 %30
}

; Function Attrs: nounwind uwtable
define hidden i32 @_cmsSearchTag(ptr noundef %0, i32 noundef %1, i32 noundef %2) #0 {
  %4 = alloca i32, align 4
  %5 = alloca ptr, align 8
  %6 = alloca i32, align 4
  %7 = alloca i32, align 4
  %8 = alloca i32, align 4
  %9 = alloca i32, align 4
  store ptr %0, ptr %5, align 8
  store i32 %1, ptr %6, align 4
  store i32 %2, ptr %7, align 4
  br label %10

10:                                               ; preds = %34, %3
  %11 = load ptr, ptr %5, align 8
  %12 = load i32, ptr %6, align 4
  %13 = call i32 @SearchOneTag(ptr noundef %11, i32 noundef %12)
  store i32 %13, ptr %8, align 4
  %14 = load i32, ptr %8, align 4
  %15 = icmp slt i32 %14, 0
  br i1 %15, label %16, label %17

16:                                               ; preds = %10
  store i32 -1, ptr %4, align 4
  br label %39

17:                                               ; preds = %10
  %18 = load i32, ptr %7, align 4
  %19 = icmp ne i32 %18, 0
  br i1 %19, label %22, label %20

20:                                               ; preds = %17
  %21 = load i32, ptr %8, align 4
  store i32 %21, ptr %4, align 4
  br label %39

22:                                               ; preds = %17
  %23 = load ptr, ptr %5, align 8
  %24 = getelementptr inbounds %struct._cms_iccprofile_struct, ptr %23, i32 0, i32 18
  %25 = load i32, ptr %8, align 4
  %26 = sext i32 %25 to i64
  %27 = getelementptr inbounds [100 x i32], ptr %24, i64 0, i64 %26
  %28 = load i32, ptr %27, align 4
  store i32 %28, ptr %9, align 4
  %29 = load i32, ptr %9, align 4
  %30 = icmp ne i32 %29, 0
  br i1 %30, label %31, label %33

31:                                               ; preds = %22
  %32 = load i32, ptr %9, align 4
  store i32 %32, ptr %6, align 4
  br label %33

33:                                               ; preds = %31, %22
  br label %34

34:                                               ; preds = %33
  %35 = load i32, ptr %9, align 4
  %36 = icmp ne i32 %35, 0
  br i1 %36, label %10, label %37, !llvm.loop !8

37:                                               ; preds = %34
  %38 = load i32, ptr %8, align 4
  store i32 %38, ptr %4, align 4
  br label %39

39:                                               ; preds = %37, %20, %16
  %40 = load i32, ptr %4, align 4
  ret i32 %40
}

; Function Attrs: nounwind uwtable
define hidden i32 @cmsTagLinkedTo(ptr noundef %0, i32 noundef %1) #0 {
  %3 = alloca i32, align 4
  %4 = alloca ptr, align 8
  %5 = alloca i32, align 4
  %6 = alloca ptr, align 8
  %7 = alloca i32, align 4
  store ptr %0, ptr %4, align 8
  store i32 %1, ptr %5, align 4
  %8 = load ptr, ptr %4, align 8
  store ptr %8, ptr %6, align 8
  %9 = load ptr, ptr %6, align 8
  %10 = load i32, ptr %5, align 4
  %11 = call i32 @_cmsSearchTag(ptr noundef %9, i32 noundef %10, i32 noundef 0)
  store i32 %11, ptr %7, align 4
  %12 = load i32, ptr %7, align 4
  %13 = icmp slt i32 %12, 0
  br i1 %13, label %14, label %15

14:                                               ; preds = %2
  store i32 0, ptr %3, align 4
  br label %22

15:                                               ; preds = %2
  %16 = load ptr, ptr %6, align 8
  %17 = getelementptr inbounds %struct._cms_iccprofile_struct, ptr %16, i32 0, i32 18
  %18 = load i32, ptr %7, align 4
  %19 = sext i32 %18 to i64
  %20 = getelementptr inbounds [100 x i32], ptr %17, i64 0, i64 %19
  %21 = load i32, ptr %20, align 4
  store i32 %21, ptr %3, align 4
  br label %22

22:                                               ; preds = %15, %14
  %23 = load i32, ptr %3, align 4
  ret i32 %23
}