; Function Attrs: nofree norecurse nosync nounwind memory(argmem: read) uwtable
define hidden i32 @cmsTagLinkedTo(ptr nocapture noundef readonly %0, i32 noundef %1) local_unnamed_addr #11 {
  %3 = getelementptr inbounds i8, ptr %0, i64 144
  %4 = getelementptr inbounds i8, ptr %0, i64 140
  %5 = load i32, ptr %4, align 4
  %6 = icmp sgt i32 %5, 0
  %wide.trip.count.i.i = zext nneg i32 %5 to i64
  br i1 %6, label %.lr.ph.i.us.i, label %_cmsSearchTag.exit.thread

.lr.ph.i.us.i:                                    ; preds = %2, %10
  %indvars.iv.i.us.i = phi i64 [ %indvars.iv.next.i.us.i, %10 ], [ 0, %2 ]
  %7 = getelementptr inbounds [100 x i32], ptr %3, i64 0, i64 %indvars.iv.i.us.i
  %8 = load i32, ptr %7, align 4
  %9 = icmp eq i32 %8, %1
  br i1 %9, label %_cmsSearchTag.exit, label %10

10:                                               ; preds = %.lr.ph.i.us.i
  %indvars.iv.next.i.us.i = add nuw nsw i64 %indvars.iv.i.us.i, 1
  %exitcond.not.i.us.i = icmp eq i64 %indvars.iv.next.i.us.i, %wide.trip.count.i.i
  br i1 %exitcond.not.i.us.i, label %_cmsSearchTag.exit.thread, label %.lr.ph.i.us.i, !llvm.loop !8

_cmsSearchTag.exit:                               ; preds = %.lr.ph.i.us.i
  %11 = getelementptr inbounds i8, ptr %0, i64 544
  %12 = and i64 %indvars.iv.i.us.i, 4294967295
  %13 = getelementptr inbounds [100 x i32], ptr %11, i64 0, i64 %12
  %14 = load i32, ptr %13, align 4
  br label %_cmsSearchTag.exit.thread

_cmsSearchTag.exit.thread:                        ; preds = %10, %2, %_cmsSearchTag.exit
  %.0 = phi i32 [ %14, %_cmsSearchTag.exit ], [ 0, %2 ], [ 0, %10 ]
  ret i32 %.0
}